; Function Attrs: nounwind uwtable
define ptr @l_Lean_Compiler_LCNF_Decl_check(ptr noundef %0, ptr noundef %1, ptr noundef %2, ptr noundef %3, ptr noundef %4, ptr noundef %5) local_unnamed_addr #0 {
  %7 = getelementptr inbounds nuw i8, ptr %0, i64 8
  %8 = load ptr, ptr %7, align 8, !tbaa !9
  %9 = ptrtoint ptr %8 to i64
  %10 = and i64 %9, 1
  %.not = icmp eq i64 %10, 0
  br i1 %.not, label %11, label %lean_inc.exit28

11:                                               ; preds = %6
  %.val.i = load i32, ptr %8, align 4, !tbaa !4
  %12 = icmp sgt i32 %.val.i, 0
  br i1 %12, label %13, label %15, !prof !12

13:                                               ; preds = %11
  %14 = add nuw i32 %.val.i, 1
  store i32 %14, ptr %8, align 4, !tbaa !4
  br label %lean_inc.exit28

15:                                               ; preds = %11
  %.not.i29 = icmp eq i32 %.val.i, 0
  br i1 %.not.i29, label %lean_inc.exit28, label %16

16:                                               ; preds = %15
  tail call void @lean_inc_ref_cold(ptr noundef nonnull %8) #4
  br label %lean_inc.exit28

lean_inc.exit28:                                  ; preds = %16, %15, %13, %6
  %17 = getelementptr inbounds nuw i8, ptr %0, i64 32
  %18 = load ptr, ptr %17, align 8, !tbaa !9
  %19 = ptrtoint ptr %18 to i64
  %20 = and i64 %19, 1
  %.not40 = icmp eq i64 %20, 0
  br i1 %.not40, label %21, label %lean_inc.exit27

21:                                               ; preds = %lean_inc.exit28
  %.val.i30 = load i32, ptr %18, align 4, !tbaa !4
  %22 = icmp sgt i32 %.val.i30, 0
  br i1 %22, label %23, label %25, !prof !12

23:                                               ; preds = %21
  %24 = add nuw i32 %.val.i30, 1
  store i32 %24, ptr %18, align 4, !tbaa !4
  br label %lean_inc.exit27

25:                                               ; preds = %21
  %.not.i31 = icmp eq i32 %.val.i30, 0
  br i1 %.not.i31, label %lean_inc.exit27, label %26

26:                                               ; preds = %25
  tail call void @lean_inc_ref_cold(ptr noundef nonnull %18) #4
  br label %lean_inc.exit27

lean_inc.exit27:                                  ; preds = %26, %25, %23, %lean_inc.exit28
  %27 = getelementptr inbounds nuw i8, ptr %0, i64 24
  %28 = load ptr, ptr %27, align 8, !tbaa !9
  %29 = ptrtoint ptr %28 to i64
  %30 = and i64 %29, 1
  %.not41 = icmp eq i64 %30, 0
  br i1 %.not41, label %31, label %lean_inc.exit26

31:                                               ; preds = %lean_inc.exit27
  %.val.i33 = load i32, ptr %28, align 4, !tbaa !4
  %32 = icmp sgt i32 %.val.i33, 0
  br i1 %32, label %33, label %35, !prof !12

33:                                               ; preds = %31
  %34 = add nuw i32 %.val.i33, 1
  store i32 %34, ptr %28, align 4, !tbaa !4
  br label %lean_inc.exit26

35:                                               ; preds = %31
  %.not.i34 = icmp eq i32 %.val.i33, 0
  br i1 %.not.i34, label %lean_inc.exit26, label %36

36:                                               ; preds = %35
  tail call void @lean_inc_ref_cold(ptr noundef nonnull %28) #4
  br label %lean_inc.exit26

lean_inc.exit26:                                  ; preds = %36, %35, %33, %lean_inc.exit27
  tail call void @lean_inc_heartbeat() #4
  %37 = tail call noalias ptr @mi_malloc_small(i64 noundef 48) #4
  %38 = icmp eq ptr %37, null
  br i1 %38, label %39, label %lean_alloc_closure.exit

39:                                               ; preds = %lean_inc.exit26
  tail call void @lean_internal_panic_out_of_memory() #5
  unreachable

lean_alloc_closure.exit:                          ; preds = %lean_inc.exit26
  %40 = getelementptr inbounds nuw i8, ptr %37, i64 4
  store i32 1, ptr %37, align 4, !tbaa !4
  store i32 -184549328, ptr %40, align 4
  %41 = getelementptr inbounds nuw i8, ptr %37, i64 8
  store ptr @l_Lean_Compiler_LCNF_Check_checkFunDeclCore, ptr %41, align 8, !tbaa !9
  %42 = getelementptr inbounds nuw i8, ptr %37, i64 16
  store i16 12, ptr %42, align 8, !tbaa !15
  %43 = getelementptr inbounds nuw i8, ptr %37, i64 18
  store i16 3, ptr %43, align 2, !tbaa !15
  %44 = getelementptr inbounds nuw i8, ptr %37, i64 24
  store ptr %8, ptr %44, align 8, !tbaa !9
  %45 = getelementptr inbounds nuw i8, ptr %37, i64 32
  store ptr %18, ptr %45, align 8, !tbaa !9
  %46 = getelementptr inbounds nuw i8, ptr %37, i64 40
  store ptr %28, ptr %46, align 8, !tbaa !9
  %47 = getelementptr inbounds nuw i8, ptr %0, i64 40
  %48 = load ptr, ptr %47, align 8, !tbaa !9
  %49 = ptrtoint ptr %48 to i64
  %50 = and i64 %49, 1
  %.not42 = icmp eq i64 %50, 0
  br i1 %.not42, label %51, label %lean_inc.exit

51:                                               ; preds = %lean_alloc_closure.exit
  %.val.i36 = load i32, ptr %48, align 4, !tbaa !4
  %52 = icmp sgt i32 %.val.i36, 0
  br i1 %52, label %53, label %55, !prof !12

53:                                               ; preds = %51
  %54 = add nuw i32 %.val.i36, 1
  store i32 %54, ptr %48, align 4, !tbaa !4
  br label %lean_inc.exit

55:                                               ; preds = %51
  %.not.i37 = icmp eq i32 %.val.i36, 0
  br i1 %.not.i37, label %lean_inc.exit, label %56

56:                                               ; preds = %55
  tail call void @lean_inc_ref_cold(ptr noundef nonnull %48) #4
  br label %lean_inc.exit

lean_inc.exit:                                    ; preds = %56, %55, %53, %lean_alloc_closure.exit
  %57 = ptrtoint ptr %0 to i64
  %58 = and i64 %57, 1
  %.not43 = icmp eq i64 %58, 0
  br i1 %.not43, label %59, label %lean_dec.exit

59:                                               ; preds = %lean_inc.exit
  %60 = load i32, ptr %0, align 4, !tbaa !4
  %61 = icmp sgt i32 %60, 1
  br i1 %61, label %62, label %64, !prof !12

62:                                               ; preds = %59
  %63 = add nsw i32 %60, -1
  store i32 %63, ptr %0, align 4, !tbaa !4
  br label %lean_dec.exit

64:                                               ; preds = %59
  %.not.i = icmp eq i32 %60, 0
  br i1 %.not.i, label %lean_dec.exit, label %65

65:                                               ; preds = %64
  tail call void @lean_dec_ref_cold(ptr noundef nonnull %0) #4
  br label %lean_dec.exit

lean_dec.exit:                                    ; preds = %65, %64, %62, %lean_inc.exit
  tail call void @lean_inc_heartbeat() #4
  %66 = tail call noalias ptr @mi_malloc_small(i64 noundef 40) #4
  %67 = icmp eq ptr %66, null
  br i1 %67, label %68, label %lean_alloc_closure.exit39

68:                                               ; preds = %lean_dec.exit
  tail call void @lean_internal_panic_out_of_memory() #5
  unreachable

lean_alloc_closure.exit39:                        ; preds = %lean_dec.exit
  %69 = getelementptr inbounds nuw i8, ptr %66, i64 4
  store i32 1, ptr %66, align 4, !tbaa !4
  store i32 -184549336, ptr %69, align 4
  %70 = getelementptr inbounds nuw i8, ptr %66, i64 8
  store ptr @l_Lean_Compiler_LCNF_DeclValue_forCodeM___at_Lean_Compiler_LCNF_Decl_check___spec__1, ptr %70, align 8, !tbaa !9
  %71 = getelementptr inbounds nuw i8, ptr %66, i64 16
  store i16 10, ptr %71, align 8, !tbaa !15
  %72 = getelementptr inbounds nuw i8, ptr %66, i64 18
  store i16 2, ptr %72, align 2, !tbaa !15
  %73 = getelementptr inbounds nuw i8, ptr %66, i64 24
  store ptr %37, ptr %73, align 8, !tbaa !9
  %74 = getelementptr inbounds nuw i8, ptr %66, i64 32
  store ptr %48, ptr %74, align 8, !tbaa !9
  %75 = tail call ptr @l_Lean_Compiler_LCNF_Check_run___rarg(ptr noundef nonnull %66, ptr noundef %1, ptr noundef %2, ptr noundef %3, ptr noundef %4, ptr noundef %5)
  ret ptr %75
}